target datalayout = "e-m:e-p270:32:32-p271:32:32-p272:64:64-i64:64-i128:128-f80:128-n8:16:32:64-S128"
target triple = "x86_64-pc-linux-gnu"

%"struct.duckdb::TemplatedValidityMask" = type { ptr, %"class.duckdb::shared_ptr", i64 }
%"class.duckdb::shared_ptr" = type { %"class.std::shared_ptr" }
%"class.std::shared_ptr" = type { %"class.std::__shared_ptr" }
%"class.std::__shared_ptr" = type { ptr, %"class.std::__shared_count" }
%"class.std::__shared_count" = type { ptr }
%"struct.duckdb::LogicalType" = type { i8, i8, %"class.duckdb::shared_ptr.3" }
%"class.duckdb::shared_ptr.3" = type { %"class.std::shared_ptr.4" }
%"class.std::shared_ptr.4" = type { %"class.std::__shared_ptr.5" }
%"class.std::__shared_ptr.5" = type { ptr, %"class.std::__shared_count" }
%"struct.duckdb::roaring::RunContainerRLEPair" = type { i16, i16 }
%"struct.duckdb::roaring::ContainerScanState" = type { ptr, i64, i64, i64 }
%"class.duckdb::Vector" = type { i8, %"struct.duckdb::LogicalType", ptr, %"struct.duckdb::ValidityMask", %"class.duckdb::shared_ptr.85", %"class.duckdb::shared_ptr.85" }
%"struct.duckdb::ValidityMask" = type { %"struct.duckdb::TemplatedValidityMask" }
%"class.duckdb::shared_ptr.85" = type { %"class.std::shared_ptr.86" }
%"class.std::shared_ptr.86" = type { %"class.std::__shared_ptr.87" }
%"class.std::__shared_ptr.87" = type { ptr, %"class.std::__shared_count" }
%"struct.duckdb::roaring::RunContainerScanState" = type { %"struct.duckdb::roaring::ContainerScanState", %"struct.duckdb::roaring::RunContainerRLEPair", i8, i64, i64, ptr }

; Function Attrs: mustprogress nounwind uwtable
define linkonce_odr noundef i64 @_ZN6duckdb8MaxValueImEET_S1_S1_(i64 noundef %0, i64 noundef %1) #2 comdat {
  %3 = alloca i64, align 8
  %4 = alloca i64, align 8
  store i64 %0, ptr %3, align 8, !tbaa !8
  store i64 %1, ptr %4, align 8, !tbaa !8
  %5 = load i64, ptr %3, align 8, !tbaa !8
  %6 = load i64, ptr %4, align 8, !tbaa !8
  %7 = icmp ugt i64 %5, %6
  br i1 %7, label %8, label %10

8:                                                ; preds = %2
  %9 = load i64, ptr %3, align 8, !tbaa !8
  br label %12

10:                                               ; preds = %2
  %11 = load i64, ptr %4, align 8, !tbaa !8
  br label %12

12:                                               ; preds = %10, %8
  %13 = phi i64 [ %9, %8 ], [ %11, %10 ]
  ret i64 %13
}

; Function Attrs: mustprogress nounwind uwtable
define linkonce_odr noundef i64 @_ZN6duckdb8MinValueImEET_S1_S1_(i64 noundef %0, i64 noundef %1) #2 comdat {
  %3 = alloca i64, align 8
  %4 = alloca i64, align 8
  store i64 %0, ptr %3, align 8, !tbaa !8
  store i64 %1, ptr %4, align 8, !tbaa !8
  %5 = load i64, ptr %3, align 8, !tbaa !8
  %6 = load i64, ptr %4, align 8, !tbaa !8
  %7 = icmp ult i64 %5, %6
  br i1 %7, label %8, label %10

8:                                                ; preds = %2
  %9 = load i64, ptr %3, align 8, !tbaa !8
  br label %12

10:                                               ; preds = %2
  %11 = load i64, ptr %4, align 8, !tbaa !8
  br label %12

12:                                               ; preds = %10, %8
  %13 = phi i64 [ %9, %8 ], [ %11, %10 ]
  ret i64 %13
}

; Function Attrs: inlinehint mustprogress uwtable
define linkonce_odr noundef nonnull align 8 dereferenceable(32) ptr @_ZN6duckdb10FlatVector8ValidityERNS_6VectorE(ptr noundef nonnull align 8 dereferenceable(104) %0) #4 comdat align 2 {
  %2 = alloca ptr, align 8
  store ptr %0, ptr %2, align 8, !tbaa !101
  %3 = load ptr, ptr %2, align 8, !tbaa !101
  call void @_ZN6duckdb10FlatVector16VerifyFlatVectorERKNS_6VectorE(ptr noundef nonnull align 8 dereferenceable(104) %3)
  %4 = load ptr, ptr %2, align 8, !tbaa !101
  %5 = getelementptr inbounds nuw %"class.duckdb::Vector", ptr %4, i32 0, i32 3
  ret ptr %5
}

; Function Attrs: mustprogress uwtable
define void @_ZN6duckdb7roaring21RunContainerScanState11ScanPartialERNS_6VectorEmm(ptr noundef nonnull align 8 dereferenceable(64) %0, ptr noundef nonnull align 8 dereferenceable(104) %1, i64 noundef %2, i64 noundef %3) unnamed_addr #0 align 2 {
  %5 = alloca ptr, align 8
  %6 = alloca ptr, align 8
  %7 = alloca i64, align 8
  %8 = alloca i64, align 8
  %9 = alloca ptr, align 8
  %10 = alloca i64, align 8
  %11 = alloca i64, align 8
  %12 = alloca i64, align 8
  %13 = alloca i64, align 8
  %14 = alloca i64, align 8
  %15 = alloca i64, align 8
  %16 = alloca i64, align 8
  store ptr %0, ptr %5, align 8, !tbaa !448
  store ptr %1, ptr %6, align 8, !tbaa !101
  store i64 %2, ptr %7, align 8, !tbaa !8
  store i64 %3, ptr %8, align 8, !tbaa !8
  %17 = load ptr, ptr %5, align 8
  call void @llvm.lifetime.start.p0(i64 8, ptr %9) #19
  %18 = load ptr, ptr %6, align 8, !tbaa !101
  %19 = call noundef nonnull align 8 dereferenceable(32) ptr @_ZN6duckdb10FlatVector8ValidityERNS_6VectorE(ptr noundef nonnull align 8 dereferenceable(104) %18)
  store ptr %19, ptr %9, align 8, !tbaa !3
  call void @llvm.lifetime.start.p0(i64 8, ptr %10) #19
  store i64 0, ptr %10, align 8, !tbaa !8
  %20 = getelementptr inbounds nuw %"struct.duckdb::roaring::RunContainerScanState", ptr %17, i32 0, i32 3
  %21 = load i64, ptr %20, align 8, !tbaa !452
  %22 = icmp ne i64 %21, 0
  br i1 %22, label %27, label %23

23:                                               ; preds = %4
  %24 = load ptr, ptr %17, align 8, !tbaa !242
  %25 = getelementptr inbounds ptr, ptr %24, i64 5
  %26 = load ptr, ptr %25, align 8
  call void %26(ptr noundef nonnull align 8 dereferenceable(64) %17)
  br label %27

27:                                               ; preds = %23, %4
  br label %28

28:                                               ; preds = %106, %27
  %29 = getelementptr inbounds nuw %"struct.duckdb::roaring::RunContainerScanState", ptr %17, i32 0, i32 2
  %30 = load i8, ptr %29, align 4, !tbaa !450, !range !278, !noundef !279
  %31 = trunc i8 %30 to i1
  br i1 %31, label %36, label %32

32:                                               ; preds = %28
  %33 = load i64, ptr %10, align 8, !tbaa !8
  %34 = load i64, ptr %8, align 8, !tbaa !8
  %35 = icmp ult i64 %33, %34
  br label %36

36:                                               ; preds = %32, %28
  %37 = phi i1 [ false, %28 ], [ %35, %32 ]
  br i1 %37, label %38, label %107

38:                                               ; preds = %36
  call void @llvm.lifetime.start.p0(i64 8, ptr %11) #19
  %39 = getelementptr inbounds nuw %"struct.duckdb::roaring::RunContainerScanState", ptr %17, i32 0, i32 1
  %40 = getelementptr inbounds nuw %"struct.duckdb::roaring::RunContainerRLEPair", ptr %39, i32 0, i32 0
  %41 = load i16, ptr %40, align 8, !tbaa !456
  %42 = zext i16 %41 to i64
  %43 = getelementptr inbounds nuw %"struct.duckdb::roaring::ContainerScanState", ptr %17, i32 0, i32 3
  %44 = load i64, ptr %43, align 8, !tbaa !208
  %45 = load i64, ptr %8, align 8, !tbaa !8
  %46 = add i64 %44, %45
  %47 = call noundef i64 @_ZN6duckdb8MinValueImEET_S1_S1_(i64 noundef %42, i64 noundef %46)
  %48 = getelementptr inbounds nuw %"struct.duckdb::roaring::ContainerScanState", ptr %17, i32 0, i32 3
  %49 = load i64, ptr %48, align 8, !tbaa !208
  %50 = load i64, ptr %10, align 8, !tbaa !8
  %51 = add i64 %49, %50
  %52 = call noundef i64 @_ZN6duckdb8MaxValueImEET_S1_S1_(i64 noundef %47, i64 noundef %51)
  store i64 %52, ptr %11, align 8, !tbaa !8
  %53 = load i64, ptr %11, align 8, !tbaa !8
  %54 = getelementptr inbounds nuw %"struct.duckdb::roaring::ContainerScanState", ptr %17, i32 0, i32 3
  %55 = load i64, ptr %54, align 8, !tbaa !208
  %56 = sub i64 %53, %55
  store i64 %56, ptr %10, align 8, !tbaa !8
  call void @llvm.lifetime.start.p0(i64 8, ptr %12) #19
  %57 = getelementptr inbounds nuw %"struct.duckdb::roaring::RunContainerScanState", ptr %17, i32 0, i32 1
  %58 = getelementptr inbounds nuw %"struct.duckdb::roaring::RunContainerRLEPair", ptr %57, i32 0, i32 0
  %59 = load i16, ptr %58, align 8, !tbaa !456
  %60 = zext i16 %59 to i32
  %61 = add nsw i32 %60, 1
  %62 = getelementptr inbounds nuw %"struct.duckdb::roaring::RunContainerScanState", ptr %17, i32 0, i32 1
  %63 = getelementptr inbounds nuw %"struct.duckdb::roaring::RunContainerRLEPair", ptr %62, i32 0, i32 1
  %64 = load i16, ptr %63, align 2, !tbaa !457
  %65 = zext i16 %64 to i32
  %66 = add nsw i32 %61, %65
  %67 = sext i32 %66 to i64
  store i64 %67, ptr %12, align 8, !tbaa !8
  call void @llvm.lifetime.start.p0(i64 8, ptr %13) #19
  %68 = load i64, ptr %12, align 8, !tbaa !8
  %69 = getelementptr inbounds nuw %"struct.duckdb::roaring::ContainerScanState", ptr %17, i32 0, i32 3
  %70 = load i64, ptr %69, align 8, !tbaa !208
  %71 = load i64, ptr %8, align 8, !tbaa !8
  %72 = add i64 %70, %71
  %73 = call noundef i64 @_ZN6duckdb8MinValueImEET_S1_S1_(i64 noundef %68, i64 noundef %72)
  store i64 %73, ptr %13, align 8, !tbaa !8
  %74 = load i64, ptr %13, align 8, !tbaa !8
  %75 = load i64, ptr %11, align 8, !tbaa !8
  %76 = icmp ugt i64 %74, %75
  br i1 %76, label %77, label %90

77:                                               ; preds = %38
  call void @llvm.lifetime.start.p0(i64 8, ptr %14) #19
  %78 = load i64, ptr %13, align 8, !tbaa !8
  %79 = load i64, ptr %11, align 8, !tbaa !8
  %80 = sub i64 %78, %79
  store i64 %80, ptr %14, align 8, !tbaa !8
  call void @llvm.lifetime.start.p0(i64 8, ptr %15) #19
  %81 = load i64, ptr %7, align 8, !tbaa !8
  %82 = load i64, ptr %10, align 8, !tbaa !8
  %83 = add i64 %81, %82
  store i64 %83, ptr %15, align 8, !tbaa !8
  call void @llvm.lifetime.start.p0(i64 8, ptr %16) #19
  %84 = load i64, ptr %15, align 8, !tbaa !8
  %85 = load i64, ptr %14, align 8, !tbaa !8
  %86 = add i64 %84, %85
  store i64 %86, ptr %16, align 8, !tbaa !8
  %87 = load ptr, ptr %9, align 8, !tbaa !3
  %88 = load i64, ptr %15, align 8, !tbaa !8
  %89 = load i64, ptr %16, align 8, !tbaa !8
  call void @_ZN6duckdb7roaring15SetInvalidRangeERNS_12ValidityMaskEmm(ptr noundef nonnull align 8 dereferenceable(32) %87, i64 noundef %88, i64 noundef %89)
  call void @llvm.lifetime.end.p0(i64 8, ptr %16) #19
  call void @llvm.lifetime.end.p0(i64 8, ptr %15) #19
  call void @llvm.lifetime.end.p0(i64 8, ptr %14) #19
  br label %90

90:                                               ; preds = %77, %38
  %91 = load i64, ptr %13, align 8, !tbaa !8
  %92 = load i64, ptr %11, align 8, !tbaa !8
  %93 = sub i64 %91, %92
  %94 = load i64, ptr %10, align 8, !tbaa !8
  %95 = add i64 %94, %93
  store i64 %95, ptr %10, align 8, !tbaa !8
  %96 = getelementptr inbounds nuw %"struct.duckdb::roaring::ContainerScanState", ptr %17, i32 0, i32 3
  %97 = load i64, ptr %96, align 8, !tbaa !208
  %98 = load i64, ptr %10, align 8, !tbaa !8
  %99 = add i64 %97, %98
  %100 = load i64, ptr %12, align 8, !tbaa !8
  %101 = icmp eq i64 %99, %100
  br i1 %101, label %102, label %106

102:                                              ; preds = %90
  %103 = load ptr, ptr %17, align 8, !tbaa !242
  %104 = getelementptr inbounds ptr, ptr %103, i64 5
  %105 = load ptr, ptr %104, align 8
  call void %105(ptr noundef nonnull align 8 dereferenceable(64) %17)
  br label %106

106:                                              ; preds = %102, %90
  call void @llvm.lifetime.end.p0(i64 8, ptr %13) #19
  call void @llvm.lifetime.end.p0(i64 8, ptr %12) #19
  call void @llvm.lifetime.end.p0(i64 8, ptr %11) #19
  br label %28, !llvm.loop !458

107:                                              ; preds = %36
  %108 = load i64, ptr %8, align 8, !tbaa !8
  %109 = getelementptr inbounds nuw %"struct.duckdb::roaring::ContainerScanState", ptr %17, i32 0, i32 3
  %110 = load i64, ptr %109, align 8, !tbaa !208
  %111 = add i64 %110, %108
  store i64 %111, ptr %109, align 8, !tbaa !208
  call void @llvm.lifetime.end.p0(i64 8, ptr %10) #19
  call void @llvm.lifetime.end.p0(i64 8, ptr %9) #19
  ret void
}