; Function Attrs: mustprogress uwtable
define void @_ZN6duckdb7roaring21RunContainerScanState11ScanPartialERNS_6VectorEmm(ptr noundef nonnull align 8 dereferenceable(64) %0, ptr noundef nonnull align 8 dereferenceable(104) %1, i64 noundef %2, i64 noundef %3) unnamed_addr #0 align 2 {
  tail call void @_ZN6duckdb10FlatVector16VerifyFlatVectorERKNS_6VectorE(ptr noundef nonnull align 8 dereferenceable(104) %1)
  %5 = getelementptr inbounds nuw i8, ptr %1, i64 40
  %6 = getelementptr inbounds nuw i8, ptr %0, i64 40
  %7 = load i64, ptr %6, align 8, !tbaa !424
  %.not = icmp eq i64 %7, 0
  br i1 %.not, label %8, label %12

8:                                                ; preds = %4
  %9 = load ptr, ptr %0, align 8, !tbaa !136
  %10 = getelementptr inbounds nuw i8, ptr %9, i64 40
  %11 = load ptr, ptr %10, align 8
  tail call void %11(ptr noundef nonnull align 8 dereferenceable(64) %0)
  br label %12

12:                                               ; preds = %8, %4
  %13 = getelementptr inbounds nuw i8, ptr %0, i64 36
  %14 = load i8, ptr %13, align 4, !tbaa !422, !range !319, !noundef !229
  %15 = trunc nuw i8 %14 to i1
  %16 = icmp eq i64 %3, 0
  %.not2829 = or i1 %16, %15
  br i1 %.not2829, label %._crit_edge, label %.lr.ph

.lr.ph:                                           ; preds = %12
  %17 = getelementptr inbounds nuw i8, ptr %0, i64 32
  %18 = getelementptr inbounds nuw i8, ptr %0, i64 24
  %19 = getelementptr inbounds nuw i8, ptr %0, i64 34
  br label %20

20:                                               ; preds = %.lr.ph, %48
  %.030 = phi i64 [ 0, %.lr.ph ], [ %41, %48 ]
  %21 = load i16, ptr %17, align 8, !tbaa !427
  %22 = zext i16 %21 to i64
  %23 = load i64, ptr %18, align 8, !tbaa !186
  %24 = add i64 %23, %3
  %25 = tail call noundef i64 @llvm.umin.i64(i64 %22, i64 %24)
  %26 = add i64 %23, %.030
  %27 = tail call noundef i64 @llvm.umax.i64(i64 %25, i64 %26)
  %28 = add nuw nsw i64 %22, 1
  %29 = load i16, ptr %19, align 2, !tbaa !428
  %30 = zext i16 %29 to i64
  %31 = add nuw nsw i64 %28, %30
  %32 = tail call noundef i64 @llvm.umin.i64(i64 %31, i64 %24)
  %33 = icmp ugt i64 %32, %27
  br i1 %33, label %34, label %39

34:                                               ; preds = %20
  %35 = sub i64 %27, %23
  %36 = sub nuw nsw i64 %32, %27
  %37 = add i64 %35, %2
  %38 = add i64 %36, %37
  tail call void @_ZN6duckdb7roaring15SetInvalidRangeERNS_12ValidityMaskEmm(ptr noundef nonnull align 8 dereferenceable(32) %5, i64 noundef %37, i64 noundef %38)
  %.pre = load i64, ptr %18, align 8, !tbaa !186
  br label %39

39:                                               ; preds = %34, %20
  %40 = phi i64 [ %.pre, %34 ], [ %23, %20 ]
  %41 = sub i64 %32, %23
  %42 = add i64 %40, %41
  %43 = icmp eq i64 %42, %31
  br i1 %43, label %44, label %48

44:                                               ; preds = %39
  %45 = load ptr, ptr %0, align 8, !tbaa !136
  %46 = getelementptr inbounds nuw i8, ptr %45, i64 40
  %47 = load ptr, ptr %46, align 8
  tail call void %47(ptr noundef nonnull align 8 dereferenceable(64) %0)
  br label %48

48:                                               ; preds = %44, %39
  %49 = load i8, ptr %13, align 4, !tbaa !422, !range !319, !noundef !229
  %50 = trunc nuw i8 %49 to i1
  %51 = icmp uge i64 %41, %3
  %.not28 = or i1 %51, %50
  br i1 %.not28, label %._crit_edge, label %20, !llvm.loop !429

._crit_edge:                                      ; preds = %48, %12
  %52 = getelementptr inbounds nuw i8, ptr %0, i64 24
  %53 = load i64, ptr %52, align 8, !tbaa !186
  %54 = add i64 %53, %3
  store i64 %54, ptr %52, align 8, !tbaa !186
  ret void
}